; Function Attrs: mustprogress uwtable
define hidden void @_ZN5SqlDB4execERKNSt7__cxx1112basic_stringIcSt11char_traitsIcESaIcEEE(ptr noundef nonnull readonly align 8 captures(none) dereferenceable(8) %0, ptr noundef nonnull readonly align 8 captures(none) dereferenceable(32) %1) local_unnamed_addr #6 align 2 personality ptr @__gxx_personality_v0 {
  %3 = alloca %"class.std::__cxx11::basic_ostringstream", align 8
  %4 = alloca %"class.std::__cxx11::basic_string", align 8
  %5 = load ptr, ptr %0, align 8
  %6 = load ptr, ptr %1, align 8
  %7 = tail call i32 @sqlite3_exec(ptr noundef %5, ptr noundef %6, ptr noundef null, ptr noundef null, ptr noundef null)
  %.not = icmp eq i32 %7, 0
  br i1 %.not, label %34, label %8

8:                                                ; preds = %2
  call void @llvm.lifetime.start.p0(i64 376, ptr nonnull %3) #18
  call void @_ZNSt7__cxx1119basic_ostringstreamIcSt11char_traitsIcESaIcEEC1Ev(ptr noundef nonnull align 8 dereferenceable(112) %3)
  %9 = invoke noundef nonnull align 8 dereferenceable(8) ptr @_ZSt16__ostream_insertIcSt11char_traitsIcEERSt13basic_ostreamIT_T0_ES6_PKS3_l(ptr noundef nonnull align 8 dereferenceable(8) %3, ptr noundef nonnull @.str.4, i64 noundef 28)
          to label %_ZStlsISt11char_traitsIcEERSt13basic_ostreamIcT_ES5_PKc.exit unwind label %21

_ZStlsISt11char_traitsIcEERSt13basic_ostreamIcT_ES5_PKc.exit: ; preds = %8
  %10 = load ptr, ptr %0, align 8
  %11 = invoke ptr @sqlite3_errmsg(ptr noundef %10)
          to label %12 unwind label %21

12:                                               ; preds = %_ZStlsISt11char_traitsIcEERSt13basic_ostreamIcT_ES5_PKc.exit
  %13 = invoke noundef nonnull align 8 dereferenceable(8) ptr @_ZStlsISt11char_traitsIcEERSt13basic_ostreamIcT_ES5_PKc(ptr noundef nonnull align 8 dereferenceable(8) %3, ptr noundef %11)
          to label %14 unwind label %21

14:                                               ; preds = %12
  %15 = load ptr, ptr %0, align 8
  %16 = invoke i32 @sqlite3_close(ptr noundef %15)
          to label %17 unwind label %21

17:                                               ; preds = %14
  %18 = call ptr @__cxa_allocate_exception(i64 32) #18
  call void @llvm.lifetime.start.p0(i64 32, ptr nonnull %4) #18
  invoke void @_ZNKSt7__cxx1119basic_ostringstreamIcSt11char_traitsIcESaIcEE3strEv(ptr dead_on_unwind nonnull writable sret(%"class.std::__cxx11::basic_string") align 8 %4, ptr noundef nonnull align 8 dereferenceable(112) %3)
          to label %19 unwind label %_ZNSt7__cxx1112basic_stringIcSt11char_traitsIcESaIcEED2Ev.exit.thread

19:                                               ; preds = %17
  invoke void @_ZN10SqlFailureC2ERKNSt7__cxx1112basic_stringIcSt11char_traitsIcESaIcEEE(ptr noundef nonnull align 8 dereferenceable(32) %18, ptr noundef nonnull align 8 dereferenceable(32) %4)
          to label %20 unwind label %24

20:                                               ; preds = %19
  invoke void @__cxa_throw(ptr nonnull %18, ptr nonnull @_ZTI10SqlFailure, ptr nonnull @_ZN10SqlFailureD2Ev) #19
          to label %35 unwind label %24

21:                                               ; preds = %8, %14, %12, %_ZStlsISt11char_traitsIcEERSt13basic_ostreamIcT_ES5_PKc.exit
  %22 = landingpad { ptr, i32 }
          cleanup
  br label %33

_ZNSt7__cxx1112basic_stringIcSt11char_traitsIcESaIcEED2Ev.exit.thread: ; preds = %17
  %23 = landingpad { ptr, i32 }
          cleanup
  call void @llvm.lifetime.end.p0(i64 32, ptr nonnull %4) #18
  br label %32

24:                                               ; preds = %20, %19
  %.0 = phi i1 [ false, %20 ], [ true, %19 ]
  %25 = landingpad { ptr, i32 }
          cleanup
  %26 = load ptr, ptr %4, align 8
  %27 = getelementptr inbounds nuw i8, ptr %4, i64 16
  %28 = icmp eq ptr %26, %27
  br i1 %28, label %_ZNKSt7__cxx1112basic_stringIcSt11char_traitsIcESaIcEE11_M_is_localEv.exit.thread.i.i, label %_ZNSt7__cxx1112basic_stringIcSt11char_traitsIcESaIcEED2Ev.exit

_ZNKSt7__cxx1112basic_stringIcSt11char_traitsIcESaIcEE11_M_is_localEv.exit.thread.i.i: ; preds = %24
  %29 = getelementptr inbounds nuw i8, ptr %4, i64 8
  %30 = load i64, ptr %29, align 8
  %31 = icmp ult i64 %30, 16
  call void @llvm.assume(i1 %31)
  call void @llvm.lifetime.end.p0(i64 32, ptr nonnull %4) #18
  br i1 %.0, label %32, label %33

_ZNSt7__cxx1112basic_stringIcSt11char_traitsIcESaIcEED2Ev.exit: ; preds = %24
  call void @_ZdlPv(ptr noundef %26) #20
  call void @llvm.lifetime.end.p0(i64 32, ptr nonnull %4) #18
  br i1 %.0, label %32, label %33

32:                                               ; preds = %_ZNKSt7__cxx1112basic_stringIcSt11char_traitsIcESaIcEE11_M_is_localEv.exit.thread.i.i, %_ZNSt7__cxx1112basic_stringIcSt11char_traitsIcESaIcEED2Ev.exit.thread, %_ZNSt7__cxx1112basic_stringIcSt11char_traitsIcESaIcEED2Ev.exit
  %.pn13 = phi { ptr, i32 } [ %23, %_ZNSt7__cxx1112basic_stringIcSt11char_traitsIcESaIcEED2Ev.exit.thread ], [ %25, %_ZNSt7__cxx1112basic_stringIcSt11char_traitsIcESaIcEED2Ev.exit ], [ %25, %_ZNKSt7__cxx1112basic_stringIcSt11char_traitsIcESaIcEE11_M_is_localEv.exit.thread.i.i ]
  call void @__cxa_free_exception(ptr %18) #18
  br label %33

33:                                               ; preds = %_ZNKSt7__cxx1112basic_stringIcSt11char_traitsIcESaIcEE11_M_is_localEv.exit.thread.i.i, %_ZNSt7__cxx1112basic_stringIcSt11char_traitsIcESaIcEED2Ev.exit, %32, %21
  %.pn.pn = phi { ptr, i32 } [ %.pn13, %32 ], [ %25, %_ZNSt7__cxx1112basic_stringIcSt11char_traitsIcESaIcEED2Ev.exit ], [ %22, %21 ], [ %25, %_ZNKSt7__cxx1112basic_stringIcSt11char_traitsIcESaIcEE11_M_is_localEv.exit.thread.i.i ]
  call void @_ZNSt7__cxx1119basic_ostringstreamIcSt11char_traitsIcESaIcEED1Ev(ptr noundef nonnull align 8 dereferenceable(112) %3) #18
  call void @llvm.lifetime.end.p0(i64 376, ptr nonnull %3) #18
  resume { ptr, i32 } %.pn.pn

34:                                               ; preds = %2
  ret void

35:                                               ; preds = %20
  unreachable
}